; Function Attrs: nounwind uwtable
define internal range(i32 -2147483648, 1) i32 @container_packet_transfer(ptr readnone captures(none) %0, ptr noundef initializes((0, 24), (36, 44), (48, 60), (64, 104)) %1, ptr noundef captures(none) %2, i32 noundef %3) #3 {
  %5 = and i32 %3, 1
  %.not = icmp eq i32 %5, 0
  br i1 %.not, label %8, label %6

6:                                                ; preds = %4
  %7 = tail call i32 @av_packet_ref(ptr noundef %1, ptr noundef %2)
  br label %13

8:                                                ; preds = %4
  tail call void @llvm.memcpy.p0.p0.i64(ptr noundef nonnull align 8 dereferenceable(104) %1, ptr noundef nonnull align 8 dereferenceable(104) %2, i64 104, i1 false), !tbaa.struct !51
  tail call void @llvm.memset.p0.i64(ptr noundef nonnull align 8 dereferenceable(104) %2, i8 0, i64 96, i1 false)
  %9 = getelementptr inbounds nuw i8, ptr %2, i64 8
  store i64 -9223372036854775808, ptr %9, align 8, !tbaa !4
  %10 = getelementptr inbounds nuw i8, ptr %2, i64 16
  store i64 -9223372036854775808, ptr %10, align 8, !tbaa !15
  %11 = getelementptr inbounds nuw i8, ptr %2, i64 72
  store i64 -1, ptr %11, align 8, !tbaa !16
  %12 = getelementptr inbounds nuw i8, ptr %2, i64 96
  store i64 4294967296, ptr %12, align 8
  br label %13

13:                                               ; preds = %8, %6
  %.0 = phi i32 [ %7, %6 ], [ 0, %8 ]
  ret i32 %.0
}